; ModuleID = '6/2478.c'
source_filename = "6/2478.c"
target datalayout = "e-m:e-p270:32:32-p271:32:32-p272:64:64-i64:64-f80:128-n8:16:32:64-S128"
target triple = "x86_64-pc-linux-gnu"

@.str = private unnamed_addr constant [3 x i8] c"%d\00", align 1
@.str.1 = private unnamed_addr constant [5 x i8] c"%d%d\00", align 1
@.str.2 = private unnamed_addr constant [4 x i8] c"%d\0A\00", align 1

; Function Attrs: noinline nounwind uwtable
define dso_local i32 @main() #0 {
  %1 = alloca i32, align 4
  %2 = alloca [100 x [100 x i32]], align 16
  %3 = alloca i32, align 4
  %4 = alloca i32, align 4
  %5 = alloca i32, align 4
  %6 = alloca i32, align 4
  %7 = alloca i32, align 4
  %8 = alloca i32, align 4
  %9 = alloca i32, align 4
  store i32 0, i32* %1, align 4
  %10 = bitcast [100 x [100 x i32]]* %2 to i8*
  call void @llvm.memset.p0i8.i64(i8* align 16 %10, i8 0, i64 40000, i1 false)
  store i32 0, i32* %4, align 4
  %11 = call i32 (i8*, ...) @__isoc99_scanf(i8* getelementptr inbounds ([3 x i8], [3 x i8]* @.str, i64 0, i64 0), i32* %3)
  store i32 0, i32* %5, align 4
  br label %12

12:                                               ; preds = %153, %0
  %13 = load i32, i32* %5, align 4
  %14 = load i32, i32* %3, align 4
  %15 = icmp slt i32 %13, %14
  br i1 %15, label %16, label %156

16:                                               ; preds = %12
  %17 = call i32 (i8*, ...) @__isoc99_scanf(i8* getelementptr inbounds ([5 x i8], [5 x i8]* @.str.1, i64 0, i64 0), i32* %8, i32* %9)
  %18 = load i32, i32* %9, align 4
  %19 = icmp eq i32 %18, 1
  br i1 %19, label %20, label %27

20:                                               ; preds = %16
  %21 = load i32, i32* %8, align 4
  %22 = icmp eq i32 %21, 1
  br i1 %22, label %23, label %27

23:                                               ; preds = %20
  %24 = call i32 (i8*, ...) @__isoc99_scanf(i8* getelementptr inbounds ([3 x i8], [3 x i8]* @.str, i64 0, i64 0), i32* %4)
  %25 = load i32, i32* %4, align 4
  %26 = call i32 (i8*, ...) @printf(i8* getelementptr inbounds ([3 x i8], [3 x i8]* @.str, i64 0, i64 0), i32 %25)
  store i32 0, i32* %4, align 4
  br label %152

27:                                               ; preds = %20, %16
  store i32 0, i32* %6, align 4
  br label %28

28:                                               ; preds = %51, %27
  %29 = load i32, i32* %6, align 4
  %30 = load i32, i32* %8, align 4
  %31 = icmp slt i32 %29, %30
  br i1 %31, label %32, label %54

32:                                               ; preds = %28
  store i32 0, i32* %7, align 4
  br label %33

33:                                               ; preds = %47, %32
  %34 = load i32, i32* %7, align 4
  %35 = load i32, i32* %9, align 4
  %36 = icmp slt i32 %34, %35
  br i1 %36, label %37, label %50

37:                                               ; preds = %33
  %38 = getelementptr inbounds [100 x [100 x i32]], [100 x [100 x i32]]* %2, i64 0, i64 0
  %39 = load i32, i32* %6, align 4
  %40 = sext i32 %39 to i64
  %41 = getelementptr inbounds [100 x i32], [100 x i32]* %38, i64 %40
  %42 = getelementptr inbounds [100 x i32], [100 x i32]* %41, i64 0, i64 0
  %43 = load i32, i32* %7, align 4
  %44 = sext i32 %43 to i64
  %45 = getelementptr inbounds i32, i32* %42, i64 %44
  %46 = call i32 (i8*, ...) @__isoc99_scanf(i8* getelementptr inbounds ([3 x i8], [3 x i8]* @.str, i64 0, i64 0), i32* %45)
  br label %47

47:                                               ; preds = %37
  %48 = load i32, i32* %7, align 4
  %49 = add nsw i32 %48, 1
  store i32 %49, i32* %7, align 4
  br label %33

50:                                               ; preds = %33
  br label %51

51:                                               ; preds = %50
  %52 = load i32, i32* %6, align 4
  %53 = add nsw i32 %52, 1
  store i32 %53, i32* %6, align 4
  br label %28

54:                                               ; preds = %28
  store i32 0, i32* %7, align 4
  br label %55

55:                                               ; preds = %80, %54
  %56 = load i32, i32* %7, align 4
  %57 = load i32, i32* %9, align 4
  %58 = icmp slt i32 %56, %57
  br i1 %58, label %59, label %83

59:                                               ; preds = %55
  %60 = load i32, i32* %4, align 4
  %61 = getelementptr inbounds [100 x [100 x i32]], [100 x [100 x i32]]* %2, i64 0, i64 0
  %62 = getelementptr inbounds [100 x i32], [100 x i32]* %61, i64 0
  %63 = getelementptr inbounds [100 x i32], [100 x i32]* %62, i64 0, i64 0
  %64 = load i32, i32* %7, align 4
  %65 = sext i32 %64 to i64
  %66 = getelementptr inbounds i32, i32* %63, i64 %65
  %67 = load i32, i32* %66, align 4
  %68 = add nsw i32 %60, %67
  %69 = getelementptr inbounds [100 x [100 x i32]], [100 x [100 x i32]]* %2, i64 0, i64 0
  %70 = load i32, i32* %8, align 4
  %71 = sext i32 %70 to i64
  %72 = getelementptr inbounds [100 x i32], [100 x i32]* %69, i64 %71
  %73 = getelementptr inbounds [100 x i32], [100 x i32]* %72, i64 -1
  %74 = getelementptr inbounds [100 x i32], [100 x i32]* %73, i64 0, i64 0
  %75 = load i32, i32* %7, align 4
  %76 = sext i32 %75 to i64
  %77 = getelementptr inbounds i32, i32* %74, i64 %76
  %78 = load i32, i32* %77, align 4
  %79 = add nsw i32 %68, %78
  store i32 %79, i32* %4, align 4
  br label %80

80:                                               ; preds = %59
  %81 = load i32, i32* %7, align 4
  %82 = add nsw i32 %81, 1
  store i32 %82, i32* %7, align 4
  br label %55

83:                                               ; preds = %55
  store i32 0, i32* %7, align 4
  br label %84

84:                                               ; preds = %109, %83
  %85 = load i32, i32* %7, align 4
  %86 = load i32, i32* %8, align 4
  %87 = icmp slt i32 %85, %86
  br i1 %87, label %88, label %112

88:                                               ; preds = %84
  %89 = load i32, i32* %4, align 4
  %90 = getelementptr inbounds [100 x [100 x i32]], [100 x [100 x i32]]* %2, i64 0, i64 0
  %91 = load i32, i32* %7, align 4
  %92 = sext i32 %91 to i64
  %93 = getelementptr inbounds [100 x i32], [100 x i32]* %90, i64 %92
  %94 = getelementptr inbounds [100 x i32], [100 x i32]* %93, i64 0, i64 0
  %95 = getelementptr inbounds i32, i32* %94, i64 0
  %96 = load i32, i32* %95, align 4
  %97 = add nsw i32 %89, %96
  %98 = getelementptr inbounds [100 x [100 x i32]], [100 x [100 x i32]]* %2, i64 0, i64 0
  %99 = load i32, i32* %7, align 4
  %100 = sext i32 %99 to i64
  %101 = getelementptr inbounds [100 x i32], [100 x i32]* %98, i64 %100
  %102 = getelementptr inbounds [100 x i32], [100 x i32]* %101, i64 0, i64 0
  %103 = load i32, i32* %9, align 4
  %104 = sext i32 %103 to i64
  %105 = getelementptr inbounds i32, i32* %102, i64 %104
  %106 = getelementptr inbounds i32, i32* %105, i64 -1
  %107 = load i32, i32* %106, align 4
  %108 = add nsw i32 %97, %107
  store i32 %108, i32* %4, align 4
  br label %109

109:                                              ; preds = %88
  %110 = load i32, i32* %7, align 4
  %111 = add nsw i32 %110, 1
  store i32 %111, i32* %7, align 4
  br label %84

112:                                              ; preds = %84
  %113 = load i32, i32* %4, align 4
  %114 = getelementptr inbounds [100 x [100 x i32]], [100 x [100 x i32]]* %2, i64 0, i64 0
  %115 = getelementptr inbounds [100 x i32], [100 x i32]* %114, i64 0
  %116 = getelementptr inbounds [100 x i32], [100 x i32]* %115, i64 0, i64 0
  %117 = getelementptr inbounds i32, i32* %116, i64 0
  %118 = load i32, i32* %117, align 4
  %119 = sub nsw i32 %113, %118
  %120 = getelementptr inbounds [100 x [100 x i32]], [100 x [100 x i32]]* %2, i64 0, i64 0
  %121 = getelementptr inbounds [100 x i32], [100 x i32]* %120, i64 0
  %122 = getelementptr inbounds [100 x i32], [100 x i32]* %121, i64 0, i64 0
  %123 = load i32, i32* %9, align 4
  %124 = sext i32 %123 to i64
  %125 = getelementptr inbounds i32, i32* %122, i64 %124
  %126 = getelementptr inbounds i32, i32* %125, i64 -1
  %127 = load i32, i32* %126, align 4
  %128 = sub nsw i32 %119, %127
  %129 = getelementptr inbounds [100 x [100 x i32]], [100 x [100 x i32]]* %2, i64 0, i64 0
  %130 = load i32, i32* %8, align 4
  %131 = sext i32 %130 to i64
  %132 = getelementptr inbounds [100 x i32], [100 x i32]* %129, i64 %131
  %133 = getelementptr inbounds [100 x i32], [100 x i32]* %132, i64 -1
  %134 = getelementptr inbounds [100 x i32], [100 x i32]* %133, i64 0, i64 0
  %135 = getelementptr inbounds i32, i32* %134, i64 0
  %136 = load i32, i32* %135, align 4
  %137 = sub nsw i32 %128, %136
  %138 = getelementptr inbounds [100 x [100 x i32]], [100 x [100 x i32]]* %2, i64 0, i64 0
  %139 = load i32, i32* %8, align 4
  %140 = sext i32 %139 to i64
  %141 = getelementptr inbounds [100 x i32], [100 x i32]* %138, i64 %140
  %142 = getelementptr inbounds [100 x i32], [100 x i32]* %141, i64 -1
  %143 = getelementptr inbounds [100 x i32], [100 x i32]* %142, i64 0, i64 0
  %144 = load i32, i32* %9, align 4
  %145 = sext i32 %144 to i64
  %146 = getelementptr inbounds i32, i32* %143, i64 %145
  %147 = getelementptr inbounds i32, i32* %146, i64 -1
  %148 = load i32, i32* %147, align 4
  %149 = sub nsw i32 %137, %148
  store i32 %149, i32* %4, align 4
  %150 = load i32, i32* %4, align 4
  %151 = call i32 (i8*, ...) @printf(i8* getelementptr inbounds ([4 x i8], [4 x i8]* @.str.2, i64 0, i64 0), i32 %150)
  store i32 0, i32* %4, align 4
  br label %152

152:                                              ; preds = %112, %23
  br label %153

153:                                              ; preds = %152
  %154 = load i32, i32* %5, align 4
  %155 = add nsw i32 %154, 1
  store i32 %155, i32* %5, align 4
  br label %12

156:                                              ; preds = %12
  ret i32 0
}

; Function Attrs: argmemonly nounwind willreturn
declare void @llvm.memset.p0i8.i64(i8* nocapture writeonly, i8, i64, i1 immarg) #1

declare dso_local i32 @__isoc99_scanf(i8*, ...) #2

declare dso_local i32 @printf(i8*, ...) #2


!llvm.module.flags = !{!0}
!llvm.ident = !{!1}

!0 = !{i32 1, !"wchar_size", i32 4}
!1 = !{!"clang version 10.0.0-4ubuntu1 "}
